; Function Attrs: nounwind uwtable
define ptr @l___private_Init_Data_Vector_Monadic_0__Array_forIn_x27__eq__foldlM_match__1_splitter___rarg(ptr noundef %0, ptr noundef %1, ptr noundef %2) #0 {
  %4 = ptrtoint ptr %0 to i64
  %5 = and i64 %4, 1
  %.not.i27 = icmp eq i64 %5, 0
  br i1 %.not.i27, label %9, label %6

6:                                                ; preds = %3
  %7 = lshr i64 %4, 1
  %8 = trunc i64 %7 to i32
  br label %lean_obj_tag.exit

9:                                                ; preds = %3
  %10 = getelementptr i8, ptr %0, i64 4
  %.val.i = load i32, ptr %10, align 4
  %11 = lshr i32 %.val.i, 24
  br label %lean_obj_tag.exit

lean_obj_tag.exit:                                ; preds = %6, %9
  %.0.i = phi i32 [ %8, %6 ], [ %11, %9 ]
  %12 = icmp eq i32 %.0.i, 0
  br i1 %12, label %13, label %40

13:                                               ; preds = %lean_obj_tag.exit
  %14 = ptrtoint ptr %1 to i64
  %15 = and i64 %14, 1
  %.not35 = icmp eq i64 %15, 0
  br i1 %.not35, label %16, label %lean_dec.exit

16:                                               ; preds = %13
  %17 = load i32, ptr %1, align 4, !tbaa !4
  %18 = icmp sgt i32 %17, 1
  br i1 %18, label %19, label %21, !prof !9

19:                                               ; preds = %16
  %20 = add nsw i32 %17, -1
  store i32 %20, ptr %1, align 4, !tbaa !4
  br label %lean_dec.exit

21:                                               ; preds = %16
  %.not.i24 = icmp eq i32 %17, 0
  br i1 %.not.i24, label %lean_dec.exit, label %22

22:                                               ; preds = %21
  tail call void @lean_dec_ref_cold(ptr noundef nonnull %1) #4
  br label %lean_dec.exit

lean_dec.exit:                                    ; preds = %22, %21, %19, %13
  %23 = getelementptr i8, ptr %0, i64 8
  %.val = load ptr, ptr %23, align 8, !tbaa !10
  %24 = ptrtoint ptr %.val to i64
  %25 = and i64 %24, 1
  %.not36 = icmp eq i64 %25, 0
  br i1 %.not36, label %26, label %lean_inc.exit

26:                                               ; preds = %lean_dec.exit
  %.val.i28 = load i32, ptr %.val, align 4, !tbaa !4
  %27 = icmp sgt i32 %.val.i28, 0
  br i1 %27, label %28, label %30, !prof !9

28:                                               ; preds = %26
  %29 = add nuw i32 %.val.i28, 1
  store i32 %29, ptr %.val, align 4, !tbaa !4
  br label %lean_inc.exit

30:                                               ; preds = %26
  %.not.i29 = icmp eq i32 %.val.i28, 0
  br i1 %.not.i29, label %lean_inc.exit, label %31

31:                                               ; preds = %30
  tail call void @lean_inc_ref_cold(ptr noundef nonnull %.val) #4
  br label %lean_inc.exit

lean_inc.exit:                                    ; preds = %31, %30, %28, %lean_dec.exit
  br i1 %.not.i27, label %32, label %lean_dec.exit16

32:                                               ; preds = %lean_inc.exit
  %33 = load i32, ptr %0, align 4, !tbaa !4
  %34 = icmp sgt i32 %33, 1
  br i1 %34, label %35, label %37, !prof !9

35:                                               ; preds = %32
  %36 = add nsw i32 %33, -1
  store i32 %36, ptr %0, align 4, !tbaa !4
  br label %lean_dec.exit16

37:                                               ; preds = %32
  %.not.i22 = icmp eq i32 %33, 0
  br i1 %.not.i22, label %lean_dec.exit16, label %38

38:                                               ; preds = %37
  tail call void @lean_dec_ref_cold(ptr noundef nonnull %0) #4
  br label %lean_dec.exit16

lean_dec.exit16:                                  ; preds = %38, %37, %35, %lean_inc.exit
  %39 = tail call ptr @lean_apply_1(ptr noundef %2, ptr noundef %.val) #4
  br label %67

40:                                               ; preds = %lean_obj_tag.exit
  %41 = ptrtoint ptr %2 to i64
  %42 = and i64 %41, 1
  %.not = icmp eq i64 %42, 0
  br i1 %.not, label %43, label %lean_dec.exit17

43:                                               ; preds = %40
  %44 = load i32, ptr %2, align 4, !tbaa !4
  %45 = icmp sgt i32 %44, 1
  br i1 %45, label %46, label %48, !prof !9

46:                                               ; preds = %43
  %47 = add nsw i32 %44, -1
  store i32 %47, ptr %2, align 4, !tbaa !4
  br label %lean_dec.exit17

48:                                               ; preds = %43
  %.not.i20 = icmp eq i32 %44, 0
  br i1 %.not.i20, label %lean_dec.exit17, label %49

49:                                               ; preds = %48
  tail call void @lean_dec_ref_cold(ptr noundef nonnull %2) #4
  br label %lean_dec.exit17

lean_dec.exit17:                                  ; preds = %49, %48, %46, %40
  %50 = getelementptr i8, ptr %0, i64 8
  %.val26 = load ptr, ptr %50, align 8, !tbaa !10
  %51 = ptrtoint ptr %.val26 to i64
  %52 = and i64 %51, 1
  %.not33 = icmp eq i64 %52, 0
  br i1 %.not33, label %53, label %lean_inc.exit19

53:                                               ; preds = %lean_dec.exit17
  %.val.i30 = load i32, ptr %.val26, align 4, !tbaa !4
  %54 = icmp sgt i32 %.val.i30, 0
  br i1 %54, label %55, label %57, !prof !9

55:                                               ; preds = %53
  %56 = add nuw i32 %.val.i30, 1
  store i32 %56, ptr %.val26, align 4, !tbaa !4
  br label %lean_inc.exit19

57:                                               ; preds = %53
  %.not.i31 = icmp eq i32 %.val.i30, 0
  br i1 %.not.i31, label %lean_inc.exit19, label %58

58:                                               ; preds = %57
  tail call void @lean_inc_ref_cold(ptr noundef nonnull %.val26) #4
  br label %lean_inc.exit19

lean_inc.exit19:                                  ; preds = %58, %57, %55, %lean_dec.exit17
  br i1 %.not.i27, label %59, label %lean_dec.exit18

59:                                               ; preds = %lean_inc.exit19
  %60 = load i32, ptr %0, align 4, !tbaa !4
  %61 = icmp sgt i32 %60, 1
  br i1 %61, label %62, label %64, !prof !9

62:                                               ; preds = %59
  %63 = add nsw i32 %60, -1
  store i32 %63, ptr %0, align 4, !tbaa !4
  br label %lean_dec.exit18

64:                                               ; preds = %59
  %.not.i = icmp eq i32 %60, 0
  br i1 %.not.i, label %lean_dec.exit18, label %65

65:                                               ; preds = %64
  tail call void @lean_dec_ref_cold(ptr noundef nonnull %0) #4
  br label %lean_dec.exit18

lean_dec.exit18:                                  ; preds = %65, %64, %62, %lean_inc.exit19
  %66 = tail call ptr @lean_apply_1(ptr noundef %1, ptr noundef %.val26) #4
  br label %67

67:                                               ; preds = %lean_dec.exit18, %lean_dec.exit16
  %.0 = phi ptr [ %39, %lean_dec.exit16 ], [ %66, %lean_dec.exit18 ]
  ret ptr %.0
}